; Function Attrs: mustprogress uwtable
define noundef zeroext i1 @_ZN18OpenImageIO_v2_6_012ImageBufAlgo17computePixelStatsERNS0_10PixelStatsERKNS_8ImageBufENS_3ROIEi(ptr noundef nonnull align 8 dereferenceable(216) %stats, ptr noundef nonnull align 8 dereferenceable(16) %src, ptr nocapture noundef readonly byval(%"struct.OpenImageIO_v2_6_0::ROI") align 8 %roi, i32 noundef %nthreads) local_unnamed_addr #5 {
entry:
  %ref.tmp = alloca %"struct.OpenImageIO_v2_6_0::ImageBufAlgo::PixelStats", align 8
  call void @_ZN18OpenImageIO_v2_6_012ImageBufAlgo17computePixelStatsERKNS_8ImageBufENS_3ROIEi(ptr nonnull sret(%"struct.OpenImageIO_v2_6_0::ImageBufAlgo::PixelStats") align 8 %ref.tmp, ptr noundef nonnull align 8 dereferenceable(16) %src, ptr noundef nonnull byval(%"struct.OpenImageIO_v2_6_0::ROI") align 8 %roi, i32 noundef %nthreads)
  %call = call noundef nonnull align 8 dereferenceable(216) ptr @_ZN18OpenImageIO_v2_6_012ImageBufAlgo10PixelStatsaSEOS1_(ptr noundef nonnull align 8 dereferenceable(216) %stats, ptr noundef nonnull align 8 dereferenceable(216) %ref.tmp)
  call void @_ZN18OpenImageIO_v2_6_012ImageBufAlgo10PixelStatsD2Ev(ptr noundef nonnull align 8 dereferenceable(216) %ref.tmp) #22
  %_M_finish.i = getelementptr inbounds i8, ptr %stats, i64 8
  %0 = load ptr, ptr %_M_finish.i, align 8
  %1 = load ptr, ptr %stats, align 8
  %sub.ptr.lhs.cast.i = ptrtoint ptr %0 to i64
  %sub.ptr.rhs.cast.i = ptrtoint ptr %1 to i64
  %sub.ptr.sub.i = sub i64 %sub.ptr.lhs.cast.i, %sub.ptr.rhs.cast.i
  %sub.ptr.div.i = ashr exact i64 %sub.ptr.sub.i, 2
  %call2 = call noundef i32 @_ZNK18OpenImageIO_v2_6_08ImageBuf9nchannelsEv(ptr noundef nonnull align 8 dereferenceable(16) %src)
  %conv = sext i32 %call2 to i64
  %cmp = icmp eq i64 %sub.ptr.div.i, %conv
  ret i1 %cmp
}